;--------------------------------------------------------
; File Created by SDCC : free open source ANSI-C Compiler
; Version 3.6.0 #9615 (MINGW64)
;--------------------------------------------------------
	.module stm8s_gpio
	.optsdcc -mstm8
	
;--------------------------------------------------------
; Public variables in this module
;--------------------------------------------------------
	.globl _GPIO_Init
	.globl _GPIO_Write
	.globl _GPIO_WriteHigh
	.globl _GPIO_WriteLow
	.globl _GPIO_WriteReverse
	.globl _GPIO_ReadOutputData
	.globl _GPIO_ReadInputData
	.globl _GPIO_ReadInputPin
	.globl _GPIO_ExternalPullUpConfig
;--------------------------------------------------------
; ram data
;--------------------------------------------------------
	.area DATA
;--------------------------------------------------------
; ram data
;--------------------------------------------------------
	.area INITIALIZED
;--------------------------------------------------------
; absolute external ram data
;--------------------------------------------------------
	.area DABS (ABS)
;--------------------------------------------------------
; global & static initialisations
;--------------------------------------------------------
	.area HOME
	.area GSINIT
	.area GSFINAL
	.area GSINIT
;--------------------------------------------------------
; Home
;--------------------------------------------------------
	.area HOME
	.area HOME
;--------------------------------------------------------
; code
;--------------------------------------------------------
	.area CODE
;	lib/stm8s_gpio.c: 13: void GPIO_Init(GPIO_TypeDef* GPIOx, GPIO_Pin_TypeDef GPIO_Pin, GPIO_Mode_TypeDef GPIO_Mode)
;	-----------------------------------------
;	 function GPIO_Init
;	-----------------------------------------
_GPIO_Init:
	sub	sp, #7
;	lib/stm8s_gpio.c: 16: GPIOx->ODR = GPIO_ODR_RESET_VALUE; /* Reset Output Data Register */
	ldw	y, (0x0a, sp)
	ldw	(0x01, sp), y
	ldw	x, (0x01, sp)
	clr	(x)
;	lib/stm8s_gpio.c: 17: GPIOx->DDR = GPIO_DDR_RESET_VALUE; /* Reset Data Direction Register */
	ldw	x, (0x01, sp)
	incw	x
	incw	x
	ldw	(0x06, sp), x
	ldw	x, (0x06, sp)
	clr	(x)
;	lib/stm8s_gpio.c: 18: GPIOx->CR1 = GPIO_CR1_RESET_VALUE; /* Reset Control Register 1 */
	ldw	x, (0x01, sp)
	addw	x, #0x0003
	ldw	(0x03, sp), x
	ldw	x, (0x03, sp)
	clr	(x)
;	lib/stm8s_gpio.c: 19: GPIOx->CR2 = GPIO_CR2_RESET_VALUE; /* Reset Control Register 2 */
	ldw	y, (0x01, sp)
	addw	y, #0x0004
	clr	(y)
;	lib/stm8s_gpio.c: 22: GPIOx->CR2 &= (uint8_t)(~(GPIO_Pin)); /* Reset corresponding bit to GPIO_Pin in CR2 register */
	ld	a, (y)
	push	a
	ld	a, (0x0d, sp)
	cpl	a
	ld	(0x06, sp), a
	pop	a
	and	a, (0x05, sp)
	ld	(y), a
;	lib/stm8s_gpio.c: 27: if ((((uint8_t)(GPIO_Mode)) & (uint8_t)0x80) != (uint8_t)0x00) /* Output mode */
	tnz	(0x0d, sp)
	jrpl	00105$
;	lib/stm8s_gpio.c: 29: if ((((uint8_t)(GPIO_Mode)) & (uint8_t)0x10) != (uint8_t)0x00) /* High level */
	ld	a, (0x0d, sp)
	bcp	a, #0x10
	jreq	00102$
;	lib/stm8s_gpio.c: 31: GPIOx->ODR |= (uint8_t)GPIO_Pin;
	ldw	x, (0x01, sp)
	ld	a, (x)
	or	a, (0x0c, sp)
	ldw	x, (0x01, sp)
	ld	(x), a
	jra	00103$
00102$:
;	lib/stm8s_gpio.c: 35: GPIOx->ODR &= (uint8_t)(~(GPIO_Pin));
	ldw	x, (0x01, sp)
	ld	a, (x)
	and	a, (0x05, sp)
	ldw	x, (0x01, sp)
	ld	(x), a
00103$:
;	lib/stm8s_gpio.c: 38: GPIOx->DDR |= (uint8_t)GPIO_Pin;
	ldw	x, (0x06, sp)
	ld	a, (x)
	or	a, (0x0c, sp)
	ldw	x, (0x06, sp)
	ld	(x), a
	jra	00106$
00105$:
;	lib/stm8s_gpio.c: 43: GPIOx->DDR &= (uint8_t)(~(GPIO_Pin));
	ldw	x, (0x06, sp)
	ld	a, (x)
	and	a, (0x05, sp)
	ldw	x, (0x06, sp)
	ld	(x), a
00106$:
;	lib/stm8s_gpio.c: 48: if ((((uint8_t)(GPIO_Mode)) & (uint8_t)0x40) != (uint8_t)0x00) /* Pull-Up or Push-Pull */
	ld	a, (0x0d, sp)
	bcp	a, #0x40
	jreq	00108$
;	lib/stm8s_gpio.c: 50: GPIOx->CR1 |= (uint8_t)GPIO_Pin;
	ldw	x, (0x03, sp)
	ld	a, (x)
	or	a, (0x0c, sp)
	ldw	x, (0x03, sp)
	ld	(x), a
	jra	00109$
00108$:
;	lib/stm8s_gpio.c: 54: GPIOx->CR1 &= (uint8_t)(~(GPIO_Pin));
	ldw	x, (0x03, sp)
	ld	a, (x)
	and	a, (0x05, sp)
	ldw	x, (0x03, sp)
	ld	(x), a
00109$:
;	lib/stm8s_gpio.c: 59: if ((((uint8_t)(GPIO_Mode)) & (uint8_t)0x20) != (uint8_t)0x00) /* Interrupt or Slow slope */
	ld	a, (0x0d, sp)
	bcp	a, #0x20
	jreq	00111$
;	lib/stm8s_gpio.c: 61: GPIOx->CR2 |= (uint8_t)GPIO_Pin;
	ld	a, (y)
	or	a, (0x0c, sp)
	ld	(y), a
	jra	00113$
00111$:
;	lib/stm8s_gpio.c: 65: GPIOx->CR2 &= (uint8_t)(~(GPIO_Pin));
	ld	a, (y)
	and	a, (0x05, sp)
	ld	(y), a
00113$:
	addw	sp, #7
	ret
;	lib/stm8s_gpio.c: 69: void GPIO_Write(GPIO_TypeDef* GPIOx, uint8_t PortVal)
;	-----------------------------------------
;	 function GPIO_Write
;	-----------------------------------------
_GPIO_Write:
;	lib/stm8s_gpio.c: 71: GPIOx->ODR = PortVal;
	ldw	x, (0x03, sp)
	ld	a, (0x05, sp)
	ld	(x), a
	ret
;	lib/stm8s_gpio.c: 74: void GPIO_WriteHigh(GPIO_TypeDef* GPIOx, GPIO_Pin_TypeDef PortPins)
;	-----------------------------------------
;	 function GPIO_WriteHigh
;	-----------------------------------------
_GPIO_WriteHigh:
;	lib/stm8s_gpio.c: 76: GPIOx->ODR |= (uint8_t)PortPins;
	ldw	x, (0x03, sp)
	ld	a, (x)
	or	a, (0x05, sp)
	ld	(x), a
	ret
;	lib/stm8s_gpio.c: 79: void GPIO_WriteLow(GPIO_TypeDef* GPIOx, GPIO_Pin_TypeDef PortPins)
;	-----------------------------------------
;	 function GPIO_WriteLow
;	-----------------------------------------
_GPIO_WriteLow:
	push	a
;	lib/stm8s_gpio.c: 81: GPIOx->ODR &= (uint8_t)(~PortPins);
	ldw	x, (0x04, sp)
	ld	a, (x)
	ld	(0x01, sp), a
	ld	a, (0x06, sp)
	cpl	a
	and	a, (0x01, sp)
	ld	(x), a
	pop	a
	ret
;	lib/stm8s_gpio.c: 84: void GPIO_WriteReverse(GPIO_TypeDef* GPIOx, GPIO_Pin_TypeDef PortPins)
;	-----------------------------------------
;	 function GPIO_WriteReverse
;	-----------------------------------------
_GPIO_WriteReverse:
;	lib/stm8s_gpio.c: 86: GPIOx->ODR ^= (uint8_t)PortPins;
	ldw	x, (0x03, sp)
	ld	a, (x)
	xor	a, (0x05, sp)
	ld	(x), a
	ret
;	lib/stm8s_gpio.c: 89: uint8_t GPIO_ReadOutputData(GPIO_TypeDef* GPIOx)
;	-----------------------------------------
;	 function GPIO_ReadOutputData
;	-----------------------------------------
_GPIO_ReadOutputData:
;	lib/stm8s_gpio.c: 91: return ((uint8_t)GPIOx->ODR);
	ldw	x, (0x03, sp)
	ld	a, (x)
	ret
;	lib/stm8s_gpio.c: 94: uint8_t GPIO_ReadInputData(GPIO_TypeDef* GPIOx)
;	-----------------------------------------
;	 function GPIO_ReadInputData
;	-----------------------------------------
_GPIO_ReadInputData:
;	lib/stm8s_gpio.c: 96: return ((uint8_t)GPIOx->IDR);
	ldw	x, (0x03, sp)
	ld	a, (0x1, x)
	ret
;	lib/stm8s_gpio.c: 99: BitStatus GPIO_ReadInputPin(GPIO_TypeDef* GPIOx, GPIO_Pin_TypeDef GPIO_Pin)
;	-----------------------------------------
;	 function GPIO_ReadInputPin
;	-----------------------------------------
_GPIO_ReadInputPin:
;	lib/stm8s_gpio.c: 101: return ((BitStatus)(GPIOx->IDR & (uint8_t)GPIO_Pin));
	ldw	x, (0x03, sp)
	ld	a, (0x1, x)
	and	a, (0x05, sp)
	ret
;	lib/stm8s_gpio.c: 104: void GPIO_ExternalPullUpConfig(GPIO_TypeDef* GPIOx, GPIO_Pin_TypeDef GPIO_Pin, FunctionalState NewState)
;	-----------------------------------------
;	 function GPIO_ExternalPullUpConfig
;	-----------------------------------------
_GPIO_ExternalPullUpConfig:
	push	a
;	lib/stm8s_gpio.c: 108: GPIOx->CR1 |= (uint8_t)GPIO_Pin;
	ldw	x, (0x04, sp)
	addw	x, #0x0003
;	lib/stm8s_gpio.c: 106: if (NewState != DISABLE) /* External Pull-Up Set*/
	tnz	(0x07, sp)
	jreq	00102$
;	lib/stm8s_gpio.c: 108: GPIOx->CR1 |= (uint8_t)GPIO_Pin;
	ld	a, (x)
	or	a, (0x06, sp)
	ld	(x), a
	jra	00104$
00102$:
;	lib/stm8s_gpio.c: 111: GPIOx->CR1 &= (uint8_t)(~(GPIO_Pin));
	ld	a, (x)
	ld	(0x01, sp), a
	ld	a, (0x06, sp)
	cpl	a
	and	a, (0x01, sp)
	ld	(x), a
00104$:
	pop	a
	ret
	.area CODE
	.area INITIALIZER
	.area CABS (ABS)
